target datalayout = "e-m:e-p270:32:32-p271:32:32-p272:64:64-i64:64-i128:128-f80:128-n8:16:32:64-S128"
target triple = "x86_64-pc-linux-gnu"

%"class.casadi::Fmu2" = type { %"class.casadi::FmuInternal", %"class.std::vector.16", %"class.std::vector.16", %"class.std::vector.16", %"class.std::vector.16", %"class.std::vector.11", %"class.std::vector.27", %"class.std::vector.27", %"class.std::vector", %"class.std::vector", %"class.std::vector", %"class.std::vector", %"class.std::vector", %"class.std::vector.16", %"class.std::vector.16", %"class.std::vector.16", %"class.std::vector.16", ptr, ptr, ptr, ptr, ptr, ptr, ptr, ptr, ptr, ptr, ptr, ptr, ptr, ptr, ptr, ptr, ptr, %struct.fmi2CallbackFunctions, %"struct.casadi::Fmu2::Value" }
%"class.casadi::FmuInternal" = type { %"class.casadi::SharedObjectInternal", %"class.std::__cxx11::basic_string", %"class.std::vector", %"class.std::vector", %"class.std::map", %"class.std::vector", %"class.std::__cxx11::basic_string", double, %"class.std::__cxx11::basic_string", %"class.std::__cxx11::basic_string", i8, i64, i8, i8, i8, %"class.casadi::Importer", %"class.std::vector.6", %"class.std::vector.6", %"class.std::vector.6", %"class.std::vector.6", i8, %"class.std::vector.11", %"class.std::vector.11", %"class.std::vector.11", %"class.std::vector.11", %"class.std::vector.11", %"class.std::vector.11", %"class.std::vector", %"class.std::vector", %"class.std::vector.16", %"class.std::vector.16", %"class.std::vector.11", %"class.std::vector.21", %"class.std::vector.21", %"class.casadi::Sparsity", %"class.casadi::Sparsity" }
%"class.casadi::SharedObjectInternal" = type { %"class.casadi::GenericSharedInternal", i64 }
%"class.casadi::GenericSharedInternal" = type { ptr, ptr }
%"class.std::map" = type { %"class.std::_Rb_tree" }
%"class.std::_Rb_tree" = type { %"struct.std::_Rb_tree<std::__cxx11::basic_string<char>, std::pair<const std::__cxx11::basic_string<char>, std::vector<unsigned long>>, std::_Select1st<std::pair<const std::__cxx11::basic_string<char>, std::vector<unsigned long>>>, std::less<std::__cxx11::basic_string<char>>>::_Rb_tree_impl" }
%"struct.std::_Rb_tree<std::__cxx11::basic_string<char>, std::pair<const std::__cxx11::basic_string<char>, std::vector<unsigned long>>, std::_Select1st<std::pair<const std::__cxx11::basic_string<char>, std::vector<unsigned long>>>, std::less<std::__cxx11::basic_string<char>>>::_Rb_tree_impl" = type { [8 x i8], %"struct.std::_Rb_tree_header" }
%"struct.std::_Rb_tree_header" = type { %"struct.std::_Rb_tree_node_base", i64 }
%"struct.std::_Rb_tree_node_base" = type { i32, ptr, ptr, ptr }
%"class.std::__cxx11::basic_string" = type { %"struct.std::__cxx11::basic_string<char>::_Alloc_hider", i64, %union.anon }
%"struct.std::__cxx11::basic_string<char>::_Alloc_hider" = type { ptr }
%union.anon = type { i64, [8 x i8] }
%"class.casadi::Importer" = type { %"class.casadi::SharedObject" }
%"class.casadi::SharedObject" = type { %"class.casadi::GenericShared" }
%"class.casadi::GenericShared" = type { ptr }
%"class.std::vector.6" = type { %"struct.std::_Vector_base.7" }
%"struct.std::_Vector_base.7" = type { %"struct.std::_Vector_base<unsigned long, std::allocator<unsigned long>>::_Vector_impl" }
%"struct.std::_Vector_base<unsigned long, std::allocator<unsigned long>>::_Vector_impl" = type { %"struct.std::_Vector_base<unsigned long, std::allocator<unsigned long>>::_Vector_impl_data" }
%"struct.std::_Vector_base<unsigned long, std::allocator<unsigned long>>::_Vector_impl_data" = type { ptr, ptr, ptr }
%"class.std::vector.21" = type { %"struct.std::_Vector_base.22" }
%"struct.std::_Vector_base.22" = type { %"struct.std::_Vector_base<std::vector<unsigned long>, std::allocator<std::vector<unsigned long>>>::_Vector_impl" }
%"struct.std::_Vector_base<std::vector<unsigned long>, std::allocator<std::vector<unsigned long>>>::_Vector_impl" = type { %"struct.std::_Vector_base<std::vector<unsigned long>, std::allocator<std::vector<unsigned long>>>::_Vector_impl_data" }
%"struct.std::_Vector_base<std::vector<unsigned long>, std::allocator<std::vector<unsigned long>>>::_Vector_impl_data" = type { ptr, ptr, ptr }
%"class.casadi::Sparsity" = type { %"class.casadi::SharedObject" }
%"class.std::vector.11" = type { %"struct.std::_Vector_base.12" }
%"struct.std::_Vector_base.12" = type { %"struct.std::_Vector_base<double, std::allocator<double>>::_Vector_impl" }
%"struct.std::_Vector_base<double, std::allocator<double>>::_Vector_impl" = type { %"struct.std::_Vector_base<double, std::allocator<double>>::_Vector_impl_data" }
%"struct.std::_Vector_base<double, std::allocator<double>>::_Vector_impl_data" = type { ptr, ptr, ptr }
%"class.std::vector.27" = type { %"struct.std::_Vector_base.28" }
%"struct.std::_Vector_base.28" = type { %"struct.std::_Vector_base<int, std::allocator<int>>::_Vector_impl" }
%"struct.std::_Vector_base<int, std::allocator<int>>::_Vector_impl" = type { %"struct.std::_Vector_base<int, std::allocator<int>>::_Vector_impl_data" }
%"struct.std::_Vector_base<int, std::allocator<int>>::_Vector_impl_data" = type { ptr, ptr, ptr }
%"class.std::vector" = type { %"struct.std::_Vector_base" }
%"struct.std::_Vector_base" = type { %"struct.std::_Vector_base<std::__cxx11::basic_string<char>, std::allocator<std::__cxx11::basic_string<char>>>::_Vector_impl" }
%"struct.std::_Vector_base<std::__cxx11::basic_string<char>, std::allocator<std::__cxx11::basic_string<char>>>::_Vector_impl" = type { %"struct.std::_Vector_base<std::__cxx11::basic_string<char>, std::allocator<std::__cxx11::basic_string<char>>>::_Vector_impl_data" }
%"struct.std::_Vector_base<std::__cxx11::basic_string<char>, std::allocator<std::__cxx11::basic_string<char>>>::_Vector_impl_data" = type { ptr, ptr, ptr }
%"class.std::vector.16" = type { %"struct.std::_Vector_base.17" }
%"struct.std::_Vector_base.17" = type { %"struct.std::_Vector_base<unsigned int, std::allocator<unsigned int>>::_Vector_impl" }
%"struct.std::_Vector_base<unsigned int, std::allocator<unsigned int>>::_Vector_impl" = type { %"struct.std::_Vector_base<unsigned int, std::allocator<unsigned int>>::_Vector_impl_data" }
%"struct.std::_Vector_base<unsigned int, std::allocator<unsigned int>>::_Vector_impl_data" = type { ptr, ptr, ptr }
%struct.fmi2CallbackFunctions = type { ptr, ptr, ptr, ptr, ptr }
%"struct.casadi::Fmu2::Value" = type { %"class.std::vector.11", %"class.std::vector.27", %"class.std::vector.27", %"class.std::vector" }
%struct.fmi2EventInfo = type { i32, i32, i32, i32, i32, double }
%"struct.casadi::EventMemory" = type { i8, i8, i8, i8, i8, double }

; Function Attrs: mustprogress uwtable
define noundef i32 @_ZNK6casadi4Fmu222update_discrete_statesEPvPNS_11EventMemoryE(ptr noundef nonnull align 8 dereferenceable(1400) %0, ptr noundef %1, ptr noundef %2) unnamed_addr #7 align 2 {
  %4 = alloca ptr, align 8
  %5 = alloca ptr, align 8
  %6 = alloca ptr, align 8
  %7 = alloca ptr, align 8
  %8 = alloca %struct.fmi2EventInfo, align 8
  %9 = alloca i32, align 4
  store ptr %0, ptr %4, align 8, !tbaa !3
  store ptr %1, ptr %5, align 8, !tbaa !103
  store ptr %2, ptr %6, align 8, !tbaa !176
  %10 = load ptr, ptr %4, align 8
  call void @llvm.lifetime.start.p0(i64 8, ptr %7) #3
  %11 = load ptr, ptr %5, align 8, !tbaa !103
  store ptr %11, ptr %7, align 8, !tbaa !103
  call void @llvm.lifetime.start.p0(i64 32, ptr %8) #3
  call void @llvm.lifetime.start.p0(i64 4, ptr %9) #3
  %12 = getelementptr inbounds nuw %"class.casadi::Fmu2", ptr %10, i32 0, i32 33
  %13 = load ptr, ptr %12, align 8, !tbaa !162
  %14 = load ptr, ptr %7, align 8, !tbaa !103
  %15 = call noundef i32 %13(ptr noundef %14, ptr noundef %8)
  store i32 %15, ptr %9, align 4, !tbaa !170
  %16 = getelementptr inbounds nuw %struct.fmi2EventInfo, ptr %8, i32 0, i32 0
  %17 = load i32, ptr %16, align 8, !tbaa !178
  %18 = icmp ne i32 %17, 0
  %19 = load ptr, ptr %6, align 8, !tbaa !176
  %20 = getelementptr inbounds nuw %"struct.casadi::EventMemory", ptr %19, i32 0, i32 0
  %21 = zext i1 %18 to i8
  store i8 %21, ptr %20, align 8, !tbaa !180
  %22 = getelementptr inbounds nuw %struct.fmi2EventInfo, ptr %8, i32 0, i32 1
  %23 = load i32, ptr %22, align 4, !tbaa !182
  %24 = icmp ne i32 %23, 0
  %25 = load ptr, ptr %6, align 8, !tbaa !176
  %26 = getelementptr inbounds nuw %"struct.casadi::EventMemory", ptr %25, i32 0, i32 1
  %27 = zext i1 %24 to i8
  store i8 %27, ptr %26, align 1, !tbaa !183
  %28 = getelementptr inbounds nuw %struct.fmi2EventInfo, ptr %8, i32 0, i32 2
  %29 = load i32, ptr %28, align 8, !tbaa !184
  %30 = icmp ne i32 %29, 0
  %31 = load ptr, ptr %6, align 8, !tbaa !176
  %32 = getelementptr inbounds nuw %"struct.casadi::EventMemory", ptr %31, i32 0, i32 2
  %33 = zext i1 %30 to i8
  store i8 %33, ptr %32, align 2, !tbaa !185
  %34 = getelementptr inbounds nuw %struct.fmi2EventInfo, ptr %8, i32 0, i32 3
  %35 = load i32, ptr %34, align 4, !tbaa !186
  %36 = icmp ne i32 %35, 0
  %37 = load ptr, ptr %6, align 8, !tbaa !176
  %38 = getelementptr inbounds nuw %"struct.casadi::EventMemory", ptr %37, i32 0, i32 3
  %39 = zext i1 %36 to i8
  store i8 %39, ptr %38, align 1, !tbaa !187
  %40 = getelementptr inbounds nuw %struct.fmi2EventInfo, ptr %8, i32 0, i32 4
  %41 = load i32, ptr %40, align 8, !tbaa !188
  %42 = icmp ne i32 %41, 0
  %43 = load ptr, ptr %6, align 8, !tbaa !176
  %44 = getelementptr inbounds nuw %"struct.casadi::EventMemory", ptr %43, i32 0, i32 4
  %45 = zext i1 %42 to i8
  store i8 %45, ptr %44, align 4, !tbaa !189
  %46 = getelementptr inbounds nuw %struct.fmi2EventInfo, ptr %8, i32 0, i32 5
  %47 = load double, ptr %46, align 8, !tbaa !190
  %48 = load ptr, ptr %6, align 8, !tbaa !176
  %49 = getelementptr inbounds nuw %"struct.casadi::EventMemory", ptr %48, i32 0, i32 5
  store double %47, ptr %49, align 8, !tbaa !191
  %50 = load i32, ptr %9, align 4, !tbaa !170
  %51 = icmp ne i32 %50, 0
  %52 = zext i1 %51 to i32
  call void @llvm.lifetime.end.p0(i64 4, ptr %9) #3
  call void @llvm.lifetime.end.p0(i64 32, ptr %8) #3
  call void @llvm.lifetime.end.p0(i64 8, ptr %7) #3
  ret i32 %52
}