; Function Attrs: mustprogress uwtable
define noundef range(i32 0, 2) i32 @_ZNK6casadi4Fmu222update_discrete_statesEPvPNS_11EventMemoryE(ptr noundef nonnull readonly align 8 captures(none) dereferenceable(1400) %0, ptr noundef %1, ptr noundef writeonly captures(none) initializes((0, 5), (8, 16)) %2) unnamed_addr #8 align 2 {
  %4 = alloca %struct.fmi2EventInfo, align 8
  call void @llvm.lifetime.start.p0(i64 32, ptr nonnull %4) #29
  %5 = getelementptr inbounds nuw i8, ptr %0, i64 1256
  %6 = load ptr, ptr %5, align 8, !tbaa !173
  %7 = call noundef i32 %6(ptr noundef %1, ptr noundef nonnull %4)
  %8 = load i32, ptr %4, align 8, !tbaa !242
  %9 = icmp ne i32 %8, 0
  %10 = zext i1 %9 to i8
  store i8 %10, ptr %2, align 8, !tbaa !244
  %11 = getelementptr inbounds nuw i8, ptr %4, i64 4
  %12 = load i32, ptr %11, align 4, !tbaa !246
  %13 = icmp ne i32 %12, 0
  %14 = getelementptr inbounds nuw i8, ptr %2, i64 1
  %15 = zext i1 %13 to i8
  store i8 %15, ptr %14, align 1, !tbaa !247
  %16 = getelementptr inbounds nuw i8, ptr %4, i64 8
  %17 = load i32, ptr %16, align 8, !tbaa !248
  %18 = icmp ne i32 %17, 0
  %19 = getelementptr inbounds nuw i8, ptr %2, i64 2
  %20 = zext i1 %18 to i8
  store i8 %20, ptr %19, align 2, !tbaa !249
  %21 = getelementptr inbounds nuw i8, ptr %4, i64 12
  %22 = load i32, ptr %21, align 4, !tbaa !250
  %23 = icmp ne i32 %22, 0
  %24 = getelementptr inbounds nuw i8, ptr %2, i64 3
  %25 = zext i1 %23 to i8
  store i8 %25, ptr %24, align 1, !tbaa !251
  %26 = getelementptr inbounds nuw i8, ptr %4, i64 16
  %27 = load i32, ptr %26, align 8, !tbaa !252
  %28 = icmp ne i32 %27, 0
  %29 = getelementptr inbounds nuw i8, ptr %2, i64 4
  %30 = zext i1 %28 to i8
  store i8 %30, ptr %29, align 4, !tbaa !253
  %31 = getelementptr inbounds nuw i8, ptr %4, i64 24
  %32 = load double, ptr %31, align 8, !tbaa !254
  %33 = getelementptr inbounds nuw i8, ptr %2, i64 8
  store double %32, ptr %33, align 8, !tbaa !255
  %34 = icmp ne i32 %7, 0
  %35 = zext i1 %34 to i32
  call void @llvm.lifetime.end.p0(i64 32, ptr nonnull %4) #29
  ret i32 %35
}